target datalayout = "e-m:e-p270:32:32-p271:32:32-p272:64:64-i64:64-i128:128-f80:128-n8:16:32:64-S128"
target triple = "x86_64-pc-linux-gnu"

%struct.lexbor_array_obj_t = type { ptr, i64, i64, i64 }

; Function Attrs: nounwind uwtable
define hidden ptr @lexbor_array_obj_expand(ptr noundef %0, i64 noundef %1) #0 {
  %3 = alloca ptr, align 8
  %4 = alloca ptr, align 8
  %5 = alloca i64, align 8
  %6 = alloca ptr, align 8
  %7 = alloca i64, align 8
  store ptr %0, ptr %4, align 8
  store i64 %1, ptr %5, align 8
  %8 = load ptr, ptr %4, align 8
  %9 = getelementptr inbounds %struct.lexbor_array_obj_t, ptr %8, i32 0, i32 2
  %10 = load i64, ptr %9, align 8
  %11 = load i64, ptr %5, align 8
  %12 = sub i64 -1, %11
  %13 = icmp ugt i64 %10, %12
  br i1 %13, label %14, label %15

14:                                               ; preds = %2
  store ptr null, ptr %3, align 8
  br label %42

15:                                               ; preds = %2
  %16 = load ptr, ptr %4, align 8
  %17 = getelementptr inbounds %struct.lexbor_array_obj_t, ptr %16, i32 0, i32 2
  %18 = load i64, ptr %17, align 8
  %19 = load i64, ptr %5, align 8
  %20 = add i64 %18, %19
  store i64 %20, ptr %7, align 8
  %21 = load ptr, ptr %4, align 8
  %22 = getelementptr inbounds %struct.lexbor_array_obj_t, ptr %21, i32 0, i32 0
  %23 = load ptr, ptr %22, align 8
  %24 = load i64, ptr %7, align 8
  %25 = load ptr, ptr %4, align 8
  %26 = getelementptr inbounds %struct.lexbor_array_obj_t, ptr %25, i32 0, i32 3
  %27 = load i64, ptr %26, align 8
  %28 = mul i64 %24, %27
  %29 = mul i64 8, %28
  %30 = call ptr @lexbor_realloc(ptr noundef %23, i64 noundef %29)
  store ptr %30, ptr %6, align 8
  %31 = load ptr, ptr %6, align 8
  %32 = icmp eq ptr %31, null
  br i1 %32, label %33, label %34

33:                                               ; preds = %15
  store ptr null, ptr %3, align 8
  br label %42

34:                                               ; preds = %15
  %35 = load ptr, ptr %6, align 8
  %36 = load ptr, ptr %4, align 8
  %37 = getelementptr inbounds %struct.lexbor_array_obj_t, ptr %36, i32 0, i32 0
  store ptr %35, ptr %37, align 8
  %38 = load i64, ptr %7, align 8
  %39 = load ptr, ptr %4, align 8
  %40 = getelementptr inbounds %struct.lexbor_array_obj_t, ptr %39, i32 0, i32 1
  store i64 %38, ptr %40, align 8
  %41 = load ptr, ptr %6, align 8
  store ptr %41, ptr %3, align 8
  br label %42

42:                                               ; preds = %34, %33, %14
  %43 = load ptr, ptr %3, align 8
  ret ptr %43
}

; Function Attrs: nounwind uwtable
define hidden ptr @lexbor_array_obj_push_n(ptr noundef %0, i64 noundef %1) #0 {
  %3 = alloca ptr, align 8
  %4 = alloca ptr, align 8
  %5 = alloca i64, align 8
  %6 = alloca ptr, align 8
  store ptr %0, ptr %4, align 8
  store i64 %1, ptr %5, align 8
  %7 = load ptr, ptr %4, align 8
  %8 = getelementptr inbounds %struct.lexbor_array_obj_t, ptr %7, i32 0, i32 2
  %9 = load i64, ptr %8, align 8
  %10 = load i64, ptr %5, align 8
  %11 = add i64 %9, %10
  %12 = load ptr, ptr %4, align 8
  %13 = getelementptr inbounds %struct.lexbor_array_obj_t, ptr %12, i32 0, i32 1
  %14 = load i64, ptr %13, align 8
  %15 = icmp ugt i64 %11, %14
  br i1 %15, label %16, label %24

16:                                               ; preds = %2
  %17 = load ptr, ptr %4, align 8
  %18 = load i64, ptr %5, align 8
  %19 = add i64 %18, 128
  %20 = call ptr @lexbor_array_obj_expand(ptr noundef %17, i64 noundef %19)
  %21 = icmp eq ptr %20, null
  br i1 %21, label %22, label %23

22:                                               ; preds = %16
  store ptr null, ptr %3, align 8
  br label %42

23:                                               ; preds = %16
  br label %24

24:                                               ; preds = %23, %2
  %25 = load ptr, ptr %4, align 8
  %26 = getelementptr inbounds %struct.lexbor_array_obj_t, ptr %25, i32 0, i32 0
  %27 = load ptr, ptr %26, align 8
  %28 = load ptr, ptr %4, align 8
  %29 = getelementptr inbounds %struct.lexbor_array_obj_t, ptr %28, i32 0, i32 2
  %30 = load i64, ptr %29, align 8
  %31 = load ptr, ptr %4, align 8
  %32 = getelementptr inbounds %struct.lexbor_array_obj_t, ptr %31, i32 0, i32 3
  %33 = load i64, ptr %32, align 8
  %34 = mul i64 %30, %33
  %35 = getelementptr inbounds i8, ptr %27, i64 %34
  store ptr %35, ptr %6, align 8
  %36 = load i64, ptr %5, align 8
  %37 = load ptr, ptr %4, align 8
  %38 = getelementptr inbounds %struct.lexbor_array_obj_t, ptr %37, i32 0, i32 2
  %39 = load i64, ptr %38, align 8
  %40 = add i64 %39, %36
  store i64 %40, ptr %38, align 8
  %41 = load ptr, ptr %6, align 8
  store ptr %41, ptr %3, align 8
  br label %42

42:                                               ; preds = %24, %22
  %43 = load ptr, ptr %3, align 8
  ret ptr %43
}