; Function Attrs: nounwind uwtable
define hidden ptr @lexbor_array_obj_push_n(ptr nocapture noundef %0, i64 noundef %1) local_unnamed_addr #0 {
  %3 = getelementptr inbounds i8, ptr %0, i64 16
  %4 = load i64, ptr %3, align 8
  %5 = add i64 %4, %1
  %6 = getelementptr inbounds i8, ptr %0, i64 8
  %7 = load i64, ptr %6, align 8
  %8 = icmp ugt i64 %5, %7
  br i1 %8, label %9, label %._crit_edge

._crit_edge:                                      ; preds = %2
  %.pre = load ptr, ptr %0, align 8
  br label %21

9:                                                ; preds = %2
  %10 = sub i64 -129, %1
  %11 = icmp ugt i64 %4, %10
  br i1 %11, label %lexbor_array_obj_expand.exit.thread, label %12

12:                                               ; preds = %9
  %13 = add i64 %5, 128
  %14 = load ptr, ptr %0, align 8
  %15 = getelementptr inbounds i8, ptr %0, i64 24
  %16 = load i64, ptr %15, align 8
  %17 = shl i64 %13, 3
  %18 = mul i64 %17, %16
  %19 = tail call ptr @lexbor_realloc(ptr noundef %14, i64 noundef %18) #8
  %20 = icmp eq ptr %19, null
  br i1 %20, label %lexbor_array_obj_expand.exit.thread, label %lexbor_array_obj_expand.exit

lexbor_array_obj_expand.exit:                     ; preds = %12
  store ptr %19, ptr %0, align 8
  store i64 %13, ptr %6, align 8
  %.pre12 = load i64, ptr %3, align 8
  %.pre13 = add i64 %.pre12, %1
  br label %21

21:                                               ; preds = %._crit_edge, %lexbor_array_obj_expand.exit
  %.pre-phi = phi i64 [ %5, %._crit_edge ], [ %.pre13, %lexbor_array_obj_expand.exit ]
  %22 = phi i64 [ %4, %._crit_edge ], [ %.pre12, %lexbor_array_obj_expand.exit ]
  %23 = phi ptr [ %.pre, %._crit_edge ], [ %19, %lexbor_array_obj_expand.exit ]
  %24 = getelementptr inbounds i8, ptr %0, i64 24
  %25 = load i64, ptr %24, align 8
  %26 = mul i64 %25, %22
  %27 = getelementptr inbounds i8, ptr %23, i64 %26
  store i64 %.pre-phi, ptr %3, align 8
  br label %lexbor_array_obj_expand.exit.thread

lexbor_array_obj_expand.exit.thread:              ; preds = %12, %9, %21
  %.0 = phi ptr [ %27, %21 ], [ null, %9 ], [ null, %12 ]
  ret ptr %.0
}